; Function Attrs: mustprogress nounwind uwtable
define hidden void @_ZN10__cxxabiv120__free_with_fallbackEPv(ptr noundef %0) local_unnamed_addr #3 personality ptr @__gxx_personality_v0 {
  %2 = icmp uge ptr %0, @_ZN12_GLOBAL__N_14heapE
  %3 = icmp ult ptr %0, getelementptr inbounds nuw (i8, ptr @_ZN12_GLOBAL__N_14heapE, i64 512)
  %4 = select i1 %2, i1 %3, i1 false
  br i1 %4, label %5, label %48

5:                                                ; preds = %1
  %6 = getelementptr inbounds i8, ptr %0, i64 -4
  %7 = tail call noundef i32 @pthread_mutex_lock(ptr noundef nonnull @_ZN12_GLOBAL__N_110heap_mutexE) #11
  %8 = load ptr, ptr @_ZN12_GLOBAL__N_18freelistE, align 8, !tbaa !5
  %9 = icmp ne ptr %8, null
  %10 = icmp ne ptr %8, getelementptr inbounds nuw (i8, ptr @_ZN12_GLOBAL__N_14heapE, i64 512)
  %11 = select i1 %9, i1 %10, i1 false
  br i1 %11, label %.lr.ph.i, label %._crit_edge.i

.lr.ph.i:                                         ; preds = %5
  %12 = getelementptr inbounds i8, ptr %0, i64 -2
  br label %13

13:                                               ; preds = %38, %.lr.ph.i
  %.033.i = phi ptr [ null, %.lr.ph.i ], [ %.02332.i, %38 ]
  %.02332.i = phi ptr [ %8, %.lr.ph.i ], [ %42, %38 ]
  %14 = getelementptr inbounds nuw i8, ptr %.02332.i, i64 2
  %15 = load i16, ptr %14, align 2, !tbaa !13
  %16 = zext i16 %15 to i64
  %17 = getelementptr inbounds nuw %"struct.(anonymous namespace)::heap_node", ptr %.02332.i, i64 %16
  %18 = icmp eq ptr %17, %6
  br i1 %18, label %19, label %23

19:                                               ; preds = %13
  %20 = getelementptr inbounds nuw i8, ptr %.02332.i, i64 2
  %21 = load i16, ptr %12, align 2, !tbaa !13
  %22 = add i16 %21, %15
  store i16 %22, ptr %20, align 2, !tbaa !13
  br label %_ZN12_GLOBAL__N_113fallback_freeEPv.exit

23:                                               ; preds = %13
  %24 = load i16, ptr %12, align 2, !tbaa !13
  %25 = zext i16 %24 to i64
  %26 = getelementptr inbounds nuw %"struct.(anonymous namespace)::heap_node", ptr %6, i64 %25
  %27 = icmp eq ptr %26, %.02332.i
  br i1 %27, label %28, label %38

28:                                               ; preds = %23
  %29 = add i16 %24, %15
  store i16 %29, ptr %12, align 2, !tbaa !13
  %30 = icmp eq ptr %.033.i, null
  br i1 %30, label %31, label %33

31:                                               ; preds = %28
  store ptr %6, ptr @_ZN12_GLOBAL__N_18freelistE, align 8, !tbaa !5
  %32 = load i16, ptr %.02332.i, align 2, !tbaa !10
  store i16 %32, ptr %6, align 2, !tbaa !10
  br label %_ZN12_GLOBAL__N_113fallback_freeEPv.exit

33:                                               ; preds = %28
  %34 = ptrtoint ptr %6 to i64
  %35 = sub i64 %34, ptrtoint (ptr @_ZN12_GLOBAL__N_14heapE to i64)
  %36 = lshr i64 %35, 2
  %37 = trunc i64 %36 to i16
  store i16 %37, ptr %.033.i, align 2, !tbaa !10
  br label %_ZN12_GLOBAL__N_113fallback_freeEPv.exit

38:                                               ; preds = %23
  %39 = load i16, ptr %.02332.i, align 2, !tbaa !10
  %40 = zext i16 %39 to i64
  %41 = shl nuw nsw i64 %40, 2
  %42 = getelementptr inbounds nuw i8, ptr @_ZN12_GLOBAL__N_14heapE, i64 %41
  %.not.i = icmp eq i16 %39, 128
  br i1 %.not.i, label %._crit_edge.i, label %13, !llvm.loop !16

._crit_edge.i:                                    ; preds = %38, %5
  %43 = ptrtoint ptr %8 to i64
  %44 = sub i64 %43, ptrtoint (ptr @_ZN12_GLOBAL__N_14heapE to i64)
  %45 = lshr i64 %44, 2
  %46 = trunc i64 %45 to i16
  store i16 %46, ptr %6, align 2, !tbaa !10
  store ptr %6, ptr @_ZN12_GLOBAL__N_18freelistE, align 8, !tbaa !5
  br label %_ZN12_GLOBAL__N_113fallback_freeEPv.exit

_ZN12_GLOBAL__N_113fallback_freeEPv.exit:         ; preds = %19, %31, %33, %._crit_edge.i
  %47 = tail call noundef i32 @pthread_mutex_unlock(ptr noundef nonnull @_ZN12_GLOBAL__N_110heap_mutexE) #11
  br label %49

48:                                               ; preds = %1
  tail call void @free(ptr noundef %0) #11
  br label %49

49:                                               ; preds = %48, %_ZN12_GLOBAL__N_113fallback_freeEPv.exit
  ret void
}